; ModuleID = '20/638.c'
source_filename = "20/638.c"
target datalayout = "e-m:e-p270:32:32-p271:32:32-p272:64:64-i64:64-f80:128-n8:16:32:64-S128"
target triple = "x86_64-pc-linux-gnu"

@.str = private unnamed_addr constant [5 x i8] c"%s%s\00", align 1
@.str.1 = private unnamed_addr constant [3 x i8] c"%c\00", align 1
@.str.2 = private unnamed_addr constant [2 x i8] c"\0A\00", align 1

; Function Attrs: noinline nounwind uwtable
define dso_local i32 @main() #0 {
  %1 = alloca i32, align 4
  %2 = alloca i32, align 4
  %3 = alloca [11 x i8], align 1
  %4 = alloca [4 x i8], align 1
  %5 = alloca i32, align 4
  %6 = alloca i32, align 4
  %7 = alloca i8, align 1
  store i32 0, i32* %1, align 4
  br label %8

8:                                                ; preds = %96, %0
  %9 = getelementptr inbounds [11 x i8], [11 x i8]* %3, i64 0, i64 0
  %10 = getelementptr inbounds [4 x i8], [4 x i8]* %4, i64 0, i64 0
  %11 = call i32 (i8*, ...) @__isoc99_scanf(i8* getelementptr inbounds ([5 x i8], [5 x i8]* @.str, i64 0, i64 0), i8* %9, i8* %10)
  %12 = icmp ne i32 %11, -1
  br i1 %12, label %13, label %98

13:                                               ; preds = %8
  store i32 0, i32* %6, align 4
  %14 = getelementptr inbounds [11 x i8], [11 x i8]* %3, i64 0, i64 0
  %15 = load i8, i8* %14, align 1
  store i8 %15, i8* %7, align 1
  %16 = getelementptr inbounds [11 x i8], [11 x i8]* %3, i64 0, i64 0
  %17 = call i64 @strlen(i8* %16) #3
  %18 = trunc i64 %17 to i32
  store i32 %18, i32* %5, align 4
  store i32 0, i32* %2, align 4
  br label %19

19:                                               ; preds = %40, %13
  %20 = load i32, i32* %2, align 4
  %21 = load i32, i32* %5, align 4
  %22 = sub nsw i32 %21, 1
  %23 = icmp sle i32 %20, %22
  br i1 %23, label %24, label %43

24:                                               ; preds = %19
  %25 = load i32, i32* %2, align 4
  %26 = sext i32 %25 to i64
  %27 = getelementptr inbounds [11 x i8], [11 x i8]* %3, i64 0, i64 %26
  %28 = load i8, i8* %27, align 1
  %29 = sext i8 %28 to i32
  %30 = load i8, i8* %7, align 1
  %31 = sext i8 %30 to i32
  %32 = icmp sgt i32 %29, %31
  br i1 %32, label %33, label %39

33:                                               ; preds = %24
  %34 = load i32, i32* %2, align 4
  %35 = sext i32 %34 to i64
  %36 = getelementptr inbounds [11 x i8], [11 x i8]* %3, i64 0, i64 %35
  %37 = load i8, i8* %36, align 1
  store i8 %37, i8* %7, align 1
  %38 = load i32, i32* %2, align 4
  store i32 %38, i32* %6, align 4
  br label %39

39:                                               ; preds = %33, %24
  br label %40

40:                                               ; preds = %39
  %41 = load i32, i32* %2, align 4
  %42 = add nsw i32 %41, 1
  store i32 %42, i32* %2, align 4
  br label %19

43:                                               ; preds = %19
  store i32 0, i32* %2, align 4
  br label %44

44:                                               ; preds = %55, %43
  %45 = load i32, i32* %2, align 4
  %46 = load i32, i32* %6, align 4
  %47 = icmp sle i32 %45, %46
  br i1 %47, label %48, label %58

48:                                               ; preds = %44
  %49 = load i32, i32* %2, align 4
  %50 = sext i32 %49 to i64
  %51 = getelementptr inbounds [11 x i8], [11 x i8]* %3, i64 0, i64 %50
  %52 = load i8, i8* %51, align 1
  %53 = sext i8 %52 to i32
  %54 = call i32 (i8*, ...) @printf(i8* getelementptr inbounds ([3 x i8], [3 x i8]* @.str.1, i64 0, i64 0), i32 %53)
  br label %55

55:                                               ; preds = %48
  %56 = load i32, i32* %2, align 4
  %57 = add nsw i32 %56, 1
  store i32 %57, i32* %2, align 4
  br label %44

58:                                               ; preds = %44
  store i32 0, i32* %2, align 4
  br label %59

59:                                               ; preds = %69, %58
  %60 = load i32, i32* %2, align 4
  %61 = icmp sle i32 %60, 2
  br i1 %61, label %62, label %72

62:                                               ; preds = %59
  %63 = load i32, i32* %2, align 4
  %64 = sext i32 %63 to i64
  %65 = getelementptr inbounds [4 x i8], [4 x i8]* %4, i64 0, i64 %64
  %66 = load i8, i8* %65, align 1
  %67 = sext i8 %66 to i32
  %68 = call i32 (i8*, ...) @printf(i8* getelementptr inbounds ([3 x i8], [3 x i8]* @.str.1, i64 0, i64 0), i32 %67)
  br label %69

69:                                               ; preds = %62
  %70 = load i32, i32* %2, align 4
  %71 = add nsw i32 %70, 1
  store i32 %71, i32* %2, align 4
  br label %59

72:                                               ; preds = %59
  %73 = load i32, i32* %6, align 4
  %74 = load i32, i32* %5, align 4
  %75 = sub nsw i32 %74, 1
  %76 = icmp ne i32 %73, %75
  br i1 %76, label %77, label %96

77:                                               ; preds = %72
  %78 = load i32, i32* %6, align 4
  %79 = add nsw i32 %78, 1
  store i32 %79, i32* %2, align 4
  br label %80

80:                                               ; preds = %92, %77
  %81 = load i32, i32* %2, align 4
  %82 = load i32, i32* %5, align 4
  %83 = sub nsw i32 %82, 1
  %84 = icmp sle i32 %81, %83
  br i1 %84, label %85, label %95

85:                                               ; preds = %80
  %86 = load i32, i32* %2, align 4
  %87 = sext i32 %86 to i64
  %88 = getelementptr inbounds [11 x i8], [11 x i8]* %3, i64 0, i64 %87
  %89 = load i8, i8* %88, align 1
  %90 = sext i8 %89 to i32
  %91 = call i32 (i8*, ...) @printf(i8* getelementptr inbounds ([3 x i8], [3 x i8]* @.str.1, i64 0, i64 0), i32 %90)
  br label %92

92:                                               ; preds = %85
  %93 = load i32, i32* %2, align 4
  %94 = add nsw i32 %93, 1
  store i32 %94, i32* %2, align 4
  br label %80

95:                                               ; preds = %80
  br label %96

96:                                               ; preds = %95, %72
  %97 = call i32 (i8*, ...) @printf(i8* getelementptr inbounds ([2 x i8], [2 x i8]* @.str.2, i64 0, i64 0))
  br label %8

98:                                               ; preds = %8
  %99 = load i32, i32* %1, align 4
  ret i32 %99
}

declare dso_local i32 @__isoc99_scanf(i8*, ...) #1

; Function Attrs: nounwind readonly
declare dso_local i64 @strlen(i8*) #2

declare dso_local i32 @printf(i8*, ...) #1


!llvm.module.flags = !{!0}
!llvm.ident = !{!1}

!0 = !{i32 1, !"wchar_size", i32 4}
!1 = !{!"clang version 10.0.0-4ubuntu1 "}
